Certificate:
    Data:
        Version: 3 (0x2)
        Serial Number: 1 (0x1)
    Signature Algorithm: sha256WithRSAEncryption
        Issuer: C=CN, ST=GuangDong, L=ShenZhen, O=Demo, OU=IT, CN=demo.com/emailAddress=ca@demo.com
        Validity
            Not Before: Apr  9 08:54:12 2022 GMT
            Not After : Apr  8 08:54:12 2025 GMT
        Subject: C=CN, ST=GuangDong, O=Demo, OU=IT, CN=demo.com/emailAddress=server@demo.com
        Subject Public Key Info:
            Public Key Algorithm: rsaEncryption
                Public-Key: (4096 bit)
                Modulus:
                    00:c3:38:d6:ba:2a:98:5a:0f:89:66:88:35:02:f5:
                    f3:93:b1:43:cc:46:f9:44:99:ba:f0:bf:16:93:fc:
                    7b:23:e7:9d:3e:61:b2:1a:f0:77:f7:3a:c3:e2:1b:
                    7b:e5:60:2c:20:a0:16:83:79:23:42:76:70:48:b8:
                    9d:9a:64:73:1b:dd:1d:da:74:35:2a:fc:4a:96:4a:
                    dc:41:7e:e1:74:77:2f:97:77:c5:9a:eb:27:c6:10:
                    dd:61:c3:08:00:ec:ce:1c:ef:d2:73:d1:e3:0c:35:
                    86:49:e8:0e:9d:24:dd:eb:a5:65:80:50:09:57:8a:
                    c5:0e:5e:1a:69:2d:55:32:02:ea:ca:e6:fb:db:bb:
                    9a:34:07:6f:60:b7:73:31:2e:34:38:df:3c:9f:7b:
                    19:42:66:42:af:97:16:1f:a2:58:1c:a7:a5:a6:bf:
                    fd:48:06:e4:bc:80:0e:d2:b7:06:c9:2b:35:02:a1:
                    c6:25:79:ad:30:a3:46:b7:c4:bb:a1:59:2d:9c:cd:
                    e8:72:a0:7a:57:64:09:18:04:b0:8e:6f:6e:34:b4:
                    b7:6b:e0:b5:66:03:9a:1c:73:0b:6a:3f:89:01:b8:
                    94:14:61:0d:25:c2:47:f1:57:77:1a:ea:15:2d:e1:
                    69:dc:bb:2d:f3:f5:c5:cc:33:26:e8:7d:45:3b:0c:
                    48:98:0f:6f:87:69:c6:1c:dd:dc:ac:27:09:d5:c4:
                    a3:08:20:47:81:65:69:c4:e5:02:c5:5c:27:8b:80:
                    27:15:d6:e3:98:a9:cb:2d:bb:e8:ff:e9:58:ac:11:
                    16:0a:02:3a:45:61:f8:88:9b:50:4b:8b:ed:2f:d6:
                    76:07:2c:70:c6:d6:ea:da:46:3f:68:ae:fb:49:0f:
                    d2:93:78:3a:be:48:97:78:92:ef:3e:17:e2:9a:79:
                    e3:7e:91:ee:e1:d6:03:62:51:33:c4:6c:b6:96:f1:
                    61:53:b3:9e:46:1b:55:1c:c7:b0:c4:30:5e:56:17:
                    82:ae:fa:68:45:10:2c:dd:69:5b:4c:f2:84:ac:1d:
                    5e:c5:98:35:52:3e:3b:e5:2f:9d:8d:b1:f3:fb:0e:
                    9e:99:a0:e0:af:b1:cc:b3:67:7d:ef:52:0e:b7:3a:
                    ce:e1:ae:3c:5f:e8:a4:e1:f5:bc:6d:86:e9:d1:b5:
                    45:21:9c:80:7d:6c:32:18:2c:2c:95:48:bd:cb:17:
                    c9:20:3a:51:4c:83:26:09:01:eb:91:ab:ec:ce:eb:
                    60:9e:6a:55:ee:57:64:cc:ee:3d:d3:89:f9:c0:2f:
                    91:e3:4c:ca:05:ff:4f:dc:66:37:e6:59:e9:d6:ff:
                    c2:5d:d3:f6:2e:9c:83:9d:aa:97:9f:be:20:7d:a0:
                    c4:47:db
                Exponent: 65537 (0x10001)
        X509v3 extensions:
            X509v3 Basic Constraints: 
                CA:FALSE
            Netscape Comment: 
                OpenSSL Generated Certificate
            X509v3 Subject Key Identifier: 
                61:C4:93:FF:B8:6F:EF:05:C3:7D:D0:79:0F:AB:70:F9:E2:84:B4:84
            X509v3 Authority Key Identifier: 
                keyid:EE:05:6C:02:FE:FE:9F:5D:0E:6A:5F:5D:0E:FB:F9:38:D7:44:4F:98

    Signature Algorithm: sha256WithRSAEncryption
         2c:fc:0d:62:27:a0:fa:a8:61:b0:7a:cb:f9:26:d1:25:b3:41:
         86:0c:2b:47:de:79:0c:b0:3e:ff:34:e9:96:8c:1c:5d:9f:88:
         9d:a3:8f:21:fe:a7:e5:c1:ca:ff:d0:67:d7:c7:6a:85:d2:0b:
         e3:1e:9a:77:53:5f:a8:0e:60:49:57:b6:7e:07:64:5f:bf:c9:
         43:61:14:63:3b:b1:aa:a6:37:e7:24:dc:1d:92:e9:d7:82:77:
         21:2e:f9:b2:89:5f:09:e0:ce:0a:63:f1:19:18:a8:b8:eb:98:
         76:e8:b7:f2:b3:f6:f0:44:a3:0a:f1:b8:8f:40:96:69:d4:4a:
         fa:19:e7:68:31:c3:0a:5f:40:cb:68:ce:b7:bd:df:26:ee:fc:
         d3:1f:b4:69:7b:10:17:27:0d:fc:60:ce:5d:cc:3a:d5:6f:eb:
         f4:04:46:ee:7f:02:80:4f:03:e0:27:94:c9:c1:8d:94:24:18:
         49:fe:d8:9a:84:73:3a:b7:27:0a:a6:de:05:d2:92:c3:ad:85:
         99:81:29:ca:fd:88:d6:3e:88:f9:41:a8:05:e2:51:98:3a:3b:
         cb:27:de:04:5c:14:e5:2b:da:9e:48:22:c9:78:18:b8:c3:2a:
         09:fc:de:54:9c:57:17:80:71:bf:70:6e:32:3c:10:ec:b8:a9:
         1b:bd:51:d8:30:c1:7f:9a:52:58:a9:71:0a:62:7a:df:fb:97:
         e2:bf:95:1d:61:41:05:4f:3f:f4:d4:a9:d2:eb:5b:17:29:53:
         2e:21:80:5e:d7:f6:52:08:d5:9d:2e:53:53:28:23:42:1e:43:
         da:18:e9:37:28:66:4f:3a:03:28:72:f1:0c:d2:6e:60:ca:87:
         76:fb:1d:95:32:d3:a2:f3:d8:fb:13:fc:ad:c5:14:64:36:2e:
         d5:b1:52:9f:96:c9:a9:bc:c6:bf:0a:99:03:8e:11:0f:55:19:
         ad:cd:df:64:bf:63:85:de:a1:c2:1b:c2:3f:cd:03:2c:c7:57:
         b8:8f:34:89:f8:b3:1d:8c:d8:50:65:b5:79:94:f8:52:f5:ba:
         07:d3:e6:a8:11:a3:86:21:04:1f:08:80:12:3a:35:86:77:ed:
         56:57:91:ae:2c:41:f3:ab:37:db:53:86:b3:e3:1b:44:3b:c1:
         29:01:12:2d:9d:4f:8e:bf:e3:98:27:28:b7:4c:1b:4c:6a:f6:
         81:6c:e0:23:e5:8e:ea:d8:2b:2b:bf:13:4a:c5:7a:1f:0f:f8:
         87:3a:06:de:fe:3d:72:2e:d9:78:ec:54:e8:62:e5:fb:21:ce:
         64:6a:21:33:53:89:12:70:3b:47:fb:cc:fe:ab:29:46:a8:ca:
         af:11:4f:5e:27:07:1d:e7
-----BEGIN CERTIFICATE-----
MIIF5TCCA82gAwIBAgIBATANBgkqhkiG9w0BAQsFADB/MQswCQYDVQQGEwJDTjES
MBAGA1UECAwJR3VhbmdEb25nMREwDwYDVQQHDAhTaGVuWmhlbjENMAsGA1UECgwE
RGVtbzELMAkGA1UECwwCSVQxETAPBgNVBAMMCGRlbW8uY29tMRowGAYJKoZIhvcN
AQkBFgtjYUBkZW1vLmNvbTAeFw0yMjA0MDkwODU0MTJaFw0yNTA0MDgwODU0MTJa
MHAxCzAJBgNVBAYTAkNOMRIwEAYDVQQIDAlHdWFuZ0RvbmcxDTALBgNVBAoMBERl
bW8xCzAJBgNVBAsMAklUMREwDwYDVQQDDAhkZW1vLmNvbTEeMBwGCSqGSIb3DQEJ
ARYPc2VydmVyQGRlbW8uY29tMIICIjANBgkqhkiG9w0BAQEFAAOCAg8AMIICCgKC
AgEAwzjWuiqYWg+JZog1AvXzk7FDzEb5RJm68L8Wk/x7I+edPmGyGvB39zrD4ht7
5WAsIKAWg3kjQnZwSLidmmRzG90d2nQ1KvxKlkrcQX7hdHcvl3fFmusnxhDdYcMI
AOzOHO/Sc9HjDDWGSegOnSTd66VlgFAJV4rFDl4aaS1VMgLqyub727uaNAdvYLdz
MS40ON88n3sZQmZCr5cWH6JYHKelpr/9SAbkvIAO0rcGySs1AqHGJXmtMKNGt8S7
oVktnM3ocqB6V2QJGASwjm9uNLS3a+C1ZgOaHHMLaj+JAbiUFGENJcJH8Vd3GuoV
LeFp3Lst8/XFzDMm6H1FOwxImA9vh2nGHN3crCcJ1cSjCCBHgWVpxOUCxVwni4An
FdbjmKnLLbvo/+lYrBEWCgI6RWH4iJtQS4vtL9Z2Byxwxtbq2kY/aK77SQ/Sk3g6
vkiXeJLvPhfimnnjfpHu4dYDYlEzxGy2lvFhU7OeRhtVHMewxDBeVheCrvpoRRAs
3WlbTPKErB1exZg1Uj475S+djbHz+w6emaDgr7HMs2d971IOtzrO4a48X+ik4fW8
bYbp0bVFIZyAfWwyGCwslUi9yxfJIDpRTIMmCQHrkavszutgnmpV7ldkzO4904n5
wC+R40zKBf9P3GY35lnp1v/CXdP2LpyDnaqXn74gfaDER9sCAwEAAaN7MHkwCQYD
VR0TBAIwADAsBglghkgBhvhCAQ0EHxYdT3BlblNTTCBHZW5lcmF0ZWQgQ2VydGlm
aWNhdGUwHQYDVR0OBBYEFGHEk/+4b+8Fw33QeQ+rcPnihLSEMB8GA1UdIwQYMBaA
FO4FbAL+/p9dDmpfXQ77+TjXRE+YMA0GCSqGSIb3DQEBCwUAA4ICAQAs/A1iJ6D6
qGGwesv5JtEls0GGDCtH3nkMsD7/NOmWjBxdn4ido48h/qflwcr/0GfXx2qF0gvj
Hpp3U1+oDmBJV7Z+B2Rfv8lDYRRjO7GqpjfnJNwdkunXgnchLvmyiV8J4M4KY/EZ
GKi465h26Lfys/bwRKMK8biPQJZp1Er6GedoMcMKX0DLaM63vd8m7vzTH7RpexAX
Jw38YM5dzDrVb+v0BEbufwKATwPgJ5TJwY2UJBhJ/tiahHM6tycKpt4F0pLDrYWZ
gSnK/YjWPoj5QagF4lGYOjvLJ94EXBTlK9qeSCLJeBi4wyoJ/N5UnFcXgHG/cG4y
PBDsuKkbvVHYMMF/mlJYqXEKYnrf+5fiv5UdYUEFTz/01KnS61sXKVMuIYBe1/ZS
CNWdLlNTKCNCHkPaGOk3KGZPOgMocvEM0m5gyod2+x2VMtOi89j7E/ytxRRkNi7V
sVKflsmpvMa/CpkDjhEPVRmtzd9kv2OF3qHCG8I/zQMsx1e4jzSJ+LMdjNhQZbV5
lPhS9boH0+aoEaOGIQQfCIASOjWGd+1WV5GuLEHzqzfbU4az4xtEO8EpARItnU+O
v+OYJyi3TBtMavaBbOAj5Y7q2CsrvxNKxXofD/iHOgbe/j1yLtl47FToYuX7Ic5k
aiEzU4kScDtH+8z+qylGqMqvEU9eJwcd5w==
-----END CERTIFICATE-----
